; ModuleID = 'source-C-CXX/4/777.c'
source_filename = "source-C-CXX/4/777.c"
target datalayout = "e-m:e-p270:32:32-p271:32:32-p272:64:64-i64:64-f80:128-n8:16:32:64-S128"
target triple = "x86_64-pc-linux-gnu"

@.str = private unnamed_addr constant [4 x i8] c"%lf\00", align 1
@.str.1 = private unnamed_addr constant [3 x i8] c"%s\00", align 1
@.str.2 = private unnamed_addr constant [6 x i8] c"error\00", align 1
@.str.3 = private unnamed_addr constant [4 x i8] c"yes\00", align 1
@.str.4 = private unnamed_addr constant [3 x i8] c"no\00", align 1

; Function Attrs: nofree nounwind sspstrong uwtable
define dso_local i32 @main() local_unnamed_addr #0 {
  %1 = alloca double, align 8
  %2 = alloca [600 x i8], align 16
  %3 = alloca [600 x i8], align 16
  %4 = bitcast double* %1 to i8*
  call void @llvm.lifetime.start.p0i8(i64 8, i8* nonnull %4) #3
  %5 = getelementptr inbounds [600 x i8], [600 x i8]* %2, i64 0, i64 0
  call void @llvm.lifetime.start.p0i8(i64 600, i8* nonnull %5) #3
  %6 = getelementptr inbounds [600 x i8], [600 x i8]* %3, i64 0, i64 0
  call void @llvm.lifetime.start.p0i8(i64 600, i8* nonnull %6) #3
  %7 = call i32 (i8*, ...) @__isoc99_scanf(i8* getelementptr inbounds ([4 x i8], [4 x i8]* @.str, i64 0, i64 0), double* nonnull %1)
  %8 = call i32 (i8*, ...) @__isoc99_scanf(i8* getelementptr inbounds ([3 x i8], [3 x i8]* @.str.1, i64 0, i64 0), i8* nonnull %5)
  %9 = call i32 (i8*, ...) @__isoc99_scanf(i8* getelementptr inbounds ([3 x i8], [3 x i8]* @.str.1, i64 0, i64 0), i8* nonnull %6)
  br label %10

10:                                               ; preds = %19, %0
  %11 = phi i64 [ %24, %19 ], [ 0, %0 ]
  %12 = phi double [ %22, %19 ], [ 0.000000e+00, %0 ]
  %13 = phi double [ %23, %19 ], [ 0.000000e+00, %0 ]
  %14 = getelementptr inbounds [600 x i8], [600 x i8]* %2, i64 0, i64 %11
  %15 = load i8, i8* %14, align 1, !tbaa !5
  switch i8 %15, label %35 [
    i8 0, label %25
    i8 65, label %16
    i8 71, label %16
    i8 67, label %16
    i8 84, label %16
  ]

16:                                               ; preds = %10, %10, %10, %10
  %17 = getelementptr inbounds [600 x i8], [600 x i8]* %3, i64 0, i64 %11
  %18 = load i8, i8* %17, align 1, !tbaa !5
  switch i8 %18, label %35 [
    i8 65, label %19
    i8 71, label %19
    i8 67, label %19
    i8 84, label %19
  ]

19:                                               ; preds = %16, %16, %16, %16
  %20 = icmp eq i8 %15, %18
  %21 = fadd double %12, 1.000000e+00
  %22 = select i1 %20, double %21, double %12
  %23 = fadd double %13, 1.000000e+00
  %24 = add nuw i64 %11, 1
  br label %10, !llvm.loop !8

25:                                               ; preds = %10
  %26 = and i64 %11, 4294967295
  %27 = getelementptr inbounds [600 x i8], [600 x i8]* %3, i64 0, i64 %26
  %28 = load i8, i8* %27, align 1, !tbaa !5
  %29 = icmp eq i8 %28, 0
  br i1 %29, label %30, label %35

30:                                               ; preds = %25
  %31 = fdiv double %12, %13
  %32 = load double, double* %1, align 8, !tbaa !10
  %33 = fcmp ogt double %31, %32
  %34 = select i1 %33, i8* getelementptr inbounds ([4 x i8], [4 x i8]* @.str.3, i64 0, i64 0), i8* getelementptr inbounds ([3 x i8], [3 x i8]* @.str.4, i64 0, i64 0)
  br label %35

35:                                               ; preds = %16, %10, %30, %25
  %36 = phi i8* [ getelementptr inbounds ([6 x i8], [6 x i8]* @.str.2, i64 0, i64 0), %25 ], [ %34, %30 ], [ getelementptr inbounds ([6 x i8], [6 x i8]* @.str.2, i64 0, i64 0), %10 ], [ getelementptr inbounds ([6 x i8], [6 x i8]* @.str.2, i64 0, i64 0), %16 ]
  %37 = call i32 (i8*, ...) @printf(i8* nonnull dereferenceable(1) %36)
  call void @llvm.lifetime.end.p0i8(i64 600, i8* nonnull %6) #3
  call void @llvm.lifetime.end.p0i8(i64 600, i8* nonnull %5) #3
  call void @llvm.lifetime.end.p0i8(i64 8, i8* nonnull %4) #3
  ret i32 0
}

; Function Attrs: argmemonly mustprogress nofree nosync nounwind willreturn
declare void @llvm.lifetime.start.p0i8(i64 immarg, i8* nocapture) #1

; Function Attrs: nofree nounwind
declare noundef i32 @__isoc99_scanf(i8* nocapture noundef readonly, ...) local_unnamed_addr #2

; Function Attrs: nofree nounwind
declare noundef i32 @printf(i8* nocapture noundef readonly, ...) local_unnamed_addr #2

; Function Attrs: argmemonly mustprogress nofree nosync nounwind willreturn
declare void @llvm.lifetime.end.p0i8(i64 immarg, i8* nocapture) #1


!llvm.module.flags = !{!0, !1, !2, !3}
!llvm.ident = !{!4}

!0 = !{i32 1, !"wchar_size", i32 4}
!1 = !{i32 7, !"PIC Level", i32 2}
!2 = !{i32 7, !"PIE Level", i32 2}
!3 = !{i32 7, !"uwtable", i32 1}
!4 = !{!"clang version 13.0.0"}
!5 = !{!6, !6, i64 0}
!6 = !{!"omnipotent char", !7, i64 0}
!7 = !{!"Simple C/C++ TBAA"}
!8 = distinct !{!8, !9}
!9 = !{!"llvm.loop.mustprogress"}
!10 = !{!11, !11, i64 0}
!11 = !{!"double", !6, i64 0}
